target datalayout = "e-m:e-p270:32:32-p271:32:32-p272:64:64-i64:64-i128:128-f80:128-n8:16:32:64-S128"
target triple = "x86_64-pc-linux-gnu"

%struct._packet_info = type { ptr, ptr, i32, i32, %struct.nstime_t, %struct.nstime_t, %struct.nstime_t, i8, ptr, ptr, ptr, ptr, %struct._address, %struct._address, %struct._address, %struct._address, %struct._address, %struct._address, i32, ptr, i8, [3 x i8], %struct.anon, i32, i32, i32, i32, ptr, i8, ptr, ptr, i16, i16, i32, i32, i16, i32, i32, ptr, ptr, ptr, i8, i8, i16, i16, i16, i32, i16, i16, ptr, ptr, ptr, ptr, ptr, i32, i32 }
%struct.nstime_t = type { i64, i32 }
%struct._address = type { i32, i32, ptr, ptr }
%struct.anon = type { i8, [3 x i8] }

@hf_pn_ptcp_header = internal global i32 0, align 4
@hf_pn_ptcp_seq_id = internal global i32 0, align 4
@ett_pn_ptcp_header = internal global i32 0, align 4
@.str.168 = private unnamed_addr constant [12 x i8] c"%s, Seq=%3u\00", align 1
@.str.169 = private unnamed_addr constant [16 x i8] c"%s: Sequence=%u\00", align 1
@.str.170 = private unnamed_addr constant [14 x i8] c": Sequence=%u\00", align 1

; Function Attrs: null_pointer_is_valid sspstrong uwtable
define internal i32 @dissect_PNPTCP_AnnouncePDU(ptr noundef %0, i32 noundef %1, ptr noundef %2, ptr noundef %3, ptr noundef %4, i16 noundef zeroext %5, ptr noundef %6, ptr noundef %7) #0 {
  %9 = alloca ptr, align 8
  %10 = alloca i32, align 4
  %11 = alloca ptr, align 8
  %12 = alloca ptr, align 8
  %13 = alloca ptr, align 8
  %14 = alloca i16, align 2
  %15 = alloca ptr, align 8
  %16 = alloca ptr, align 8
  %17 = alloca ptr, align 8
  %18 = alloca ptr, align 8
  %19 = alloca i16, align 2
  store ptr %0, ptr %9, align 8
  store i32 %1, ptr %10, align 4
  store ptr %2, ptr %11, align 8
  store ptr %3, ptr %12, align 8
  store ptr %4, ptr %13, align 8
  store i16 %5, ptr %14, align 2
  store ptr %6, ptr %15, align 8
  store ptr %7, ptr %16, align 8
  call void @llvm.lifetime.start.p0(i64 8, ptr %17) #3
  call void @llvm.lifetime.start.p0(i64 8, ptr %18) #3
  call void @llvm.lifetime.start.p0(i64 2, ptr %19) #3
  %20 = load ptr, ptr %12, align 8
  %21 = load i32, ptr @hf_pn_ptcp_header, align 4
  %22 = load ptr, ptr %9, align 8
  %23 = load i32, ptr %10, align 4
  %24 = call ptr @proto_tree_add_item(ptr noundef %20, i32 noundef %21, ptr noundef %22, i32 noundef %23, i32 noundef 20, i32 noundef 0)
  store ptr %24, ptr %17, align 8
  %25 = load ptr, ptr %17, align 8
  %26 = load i32, ptr @ett_pn_ptcp_header, align 4
  %27 = call ptr @proto_item_add_subtree(ptr noundef %25, i32 noundef %26)
  store ptr %27, ptr %18, align 8
  %28 = load ptr, ptr %9, align 8
  %29 = load i32, ptr %10, align 4
  %30 = load ptr, ptr %11, align 8
  %31 = load ptr, ptr %18, align 8
  %32 = call i32 @dissect_pn_padding(ptr noundef %28, i32 noundef %29, ptr noundef %30, ptr noundef %31, i32 noundef 12)
  store i32 %32, ptr %10, align 4
  %33 = load ptr, ptr %9, align 8
  %34 = load i32, ptr %10, align 4
  %35 = load ptr, ptr %11, align 8
  %36 = load ptr, ptr %18, align 8
  %37 = load i32, ptr @hf_pn_ptcp_seq_id, align 4
  %38 = call i32 @dissect_pn_uint16(ptr noundef %33, i32 noundef %34, ptr noundef %35, ptr noundef %36, i32 noundef %37, ptr noundef %19)
  store i32 %38, ptr %10, align 4
  %39 = load ptr, ptr %9, align 8
  %40 = load i32, ptr %10, align 4
  %41 = load ptr, ptr %11, align 8
  %42 = load ptr, ptr %18, align 8
  %43 = call i32 @dissect_pn_padding(ptr noundef %39, i32 noundef %40, ptr noundef %41, ptr noundef %42, i32 noundef 6)
  store i32 %43, ptr %10, align 4
  %44 = load ptr, ptr %11, align 8
  %45 = getelementptr inbounds nuw %struct._packet_info, ptr %44, i32 0, i32 1
  %46 = load ptr, ptr %45, align 8
  %47 = load ptr, ptr %15, align 8
  %48 = load i16, ptr %19, align 2
  %49 = zext i16 %48 to i32
  call void (ptr, i32, ptr, ...) @col_append_fstr(ptr noundef %46, i32 noundef 25, ptr noundef @.str.168, ptr noundef %47, i32 noundef %49)
  %50 = load ptr, ptr %13, align 8
  %51 = load ptr, ptr %16, align 8
  %52 = load i16, ptr %19, align 2
  %53 = zext i16 %52 to i32
  call void (ptr, ptr, ...) @proto_item_append_text(ptr noundef %50, ptr noundef @.str.169, ptr noundef %51, i32 noundef %53)
  %54 = load ptr, ptr %17, align 8
  %55 = load i16, ptr %19, align 2
  %56 = zext i16 %55 to i32
  call void (ptr, ptr, ...) @proto_item_append_text(ptr noundef %54, ptr noundef @.str.170, i32 noundef %56)
  %57 = load ptr, ptr %9, align 8
  %58 = load i32, ptr %10, align 4
  %59 = load ptr, ptr %11, align 8
  %60 = load ptr, ptr %12, align 8
  %61 = load ptr, ptr %13, align 8
  %62 = load i16, ptr %14, align 2
  %63 = call i32 @dissect_PNPTCP_blocks(ptr noundef %57, i32 noundef %58, ptr noundef %59, ptr noundef %60, ptr noundef %61, i16 noundef zeroext %62)
  store i32 %63, ptr %10, align 4
  %64 = load i32, ptr %10, align 4
  call void @llvm.lifetime.end.p0(i64 2, ptr %19) #3
  call void @llvm.lifetime.end.p0(i64 8, ptr %18) #3
  call void @llvm.lifetime.end.p0(i64 8, ptr %17) #3
  ret i32 %64
}