; Function Attrs: null_pointer_is_valid sspstrong uwtable
define internal fastcc i32 @dissect_PNPTCP_AnnouncePDU(ptr noundef %0, ptr noundef %1, ptr noundef %2, ptr noundef %3, i16 noundef zeroext %4, ptr noundef %5, ptr noundef %6) unnamed_addr #0 {
  %8 = alloca i16, align 2
  call void @llvm.lifetime.start.p0(i64 2, ptr nonnull %8) #3
  %9 = load i32, ptr @hf_pn_ptcp_header, align 4
  %10 = tail call ptr @proto_tree_add_item(ptr noundef %2, i32 noundef %9, ptr noundef %0, i32 noundef 0, i32 noundef 20, i32 noundef 0)
  %11 = load i32, ptr @ett_pn_ptcp_header, align 4
  %12 = tail call ptr @proto_item_add_subtree(ptr noundef %10, i32 noundef %11)
  %13 = tail call i32 @dissect_pn_padding(ptr noundef %0, i32 noundef 0, ptr noundef %1, ptr noundef %12, i32 noundef 12)
  %14 = load i32, ptr @hf_pn_ptcp_seq_id, align 4
  %15 = call i32 @dissect_pn_uint16(ptr noundef %0, i32 noundef %13, ptr noundef %1, ptr noundef %12, i32 noundef %14, ptr noundef nonnull %8)
  %16 = call i32 @dissect_pn_padding(ptr noundef %0, i32 noundef %15, ptr noundef %1, ptr noundef %12, i32 noundef 6)
  %17 = getelementptr inbounds nuw i8, ptr %1, i64 8
  %18 = load ptr, ptr %17, align 8
  %19 = load i16, ptr %8, align 2
  %20 = zext i16 %19 to i32
  call void (ptr, i32, ptr, ...) @col_append_fstr(ptr noundef %18, i32 noundef 25, ptr noundef nonnull @.str.168, ptr noundef %5, i32 noundef %20)
  %21 = load i16, ptr %8, align 2
  %22 = zext i16 %21 to i32
  call void (ptr, ptr, ...) @proto_item_append_text(ptr noundef %3, ptr noundef nonnull @.str.169, ptr noundef %6, i32 noundef %22)
  %23 = load i16, ptr %8, align 2
  %24 = zext i16 %23 to i32
  call void (ptr, ptr, ...) @proto_item_append_text(ptr noundef %10, ptr noundef nonnull @.str.170, i32 noundef %24)
  %25 = call fastcc i32 @dissect_PNPTCP_blocks(ptr noundef %0, i32 noundef %16, ptr noundef %1, ptr noundef %2, i16 noundef zeroext %4)
  call void @llvm.lifetime.end.p0(i64 2, ptr nonnull %8) #3
  ret i32 %25
}